; Function Attrs: mustprogress nofree norecurse nosync nounwind willreturn memory(argmem: read) uwtable
define noundef zeroext i1 @_ZNK32pxrInternal_v0_24__pxrReserved__7GfVec2ieqERKNS_7GfVec2fE(ptr nocapture noundef nonnull readonly align 4 dereferenceable(8) %0, ptr nocapture noundef nonnull readonly align 4 dereferenceable(8) %1) local_unnamed_addr #2 align 2 {
  %3 = load i32, ptr %0, align 4
  %4 = sitofp i32 %3 to float
  %5 = load float, ptr %1, align 4
  %6 = fcmp oeq float %5, %4
  %7 = getelementptr inbounds i8, ptr %0, i64 4
  %8 = load i32, ptr %7, align 4
  %9 = sitofp i32 %8 to float
  %10 = getelementptr inbounds i8, ptr %1, i64 4
  %11 = load float, ptr %10, align 4
  %12 = fcmp oeq float %11, %9
  %13 = select i1 %6, i1 %12, i1 false
  ret i1 %13
}